target datalayout = "e-m:e-p270:32:32-p271:32:32-p272:64:64-i64:64-i128:128-f80:128-n8:16:32:64-S128"
target triple = "x86_64-pc-linux-gnu"

%"class.std::basic_ios" = type { %"class.std::ios_base", ptr, i8, i8, ptr, ptr, ptr, ptr }
%"class.std::ios_base" = type { ptr, i64, i64, i32, i32, i32, ptr, %"struct.std::ios_base::_Words", [8 x %"struct.std::ios_base::_Words"], i32, ptr, %"class.std::locale" }
%"struct.std::ios_base::_Words" = type { ptr, i64 }
%"class.std::locale" = type { ptr }
%"struct.std::_Rb_tree_header" = type { %"struct.std::_Rb_tree_node_base", i64 }
%"struct.std::_Rb_tree_node_base" = type { i32, ptr, ptr, ptr }
%"class.std::set" = type { %"class.std::_Rb_tree" }
%"class.std::_Rb_tree" = type { %"struct.std::_Rb_tree<std::__cxx11::basic_string<char>, std::__cxx11::basic_string<char>, std::_Identity<std::__cxx11::basic_string<char>>, std::less<std::__cxx11::basic_string<char>>>::_Rb_tree_impl" }
%"struct.std::_Rb_tree<std::__cxx11::basic_string<char>, std::__cxx11::basic_string<char>, std::_Identity<std::__cxx11::basic_string<char>>, std::less<std::__cxx11::basic_string<char>>>::_Rb_tree_impl" = type { [8 x i8], %"struct.std::_Rb_tree_header" }
%"class.std::__cxx11::basic_string" = type { %"struct.std::__cxx11::basic_string<char>::_Alloc_hider", i64, %union.anon }
%"struct.std::__cxx11::basic_string<char>::_Alloc_hider" = type { ptr }
%union.anon = type { i64, [8 x i8] }
%class.V3ErrorGuarded = type { i8, i32, %class.V3ErrorCode, i8, %"class.std::set", ptr, i8, i32, i32, %"struct.std::array", i8, %"struct.std::array", i32, i32, i8, %"class.std::__cxx11::basic_ostringstream", %class.V3MutexImp }
%class.V3ErrorCode = type { i8 }
%"struct.std::array" = type { [121 x i8] }
%"class.std::__cxx11::basic_ostringstream" = type { %"class.std::basic_ostream.base", %"class.std::__cxx11::basic_stringbuf", %"class.std::basic_ios" }
%"class.std::basic_ostream.base" = type { ptr }
%"class.std::__cxx11::basic_stringbuf" = type { %"class.std::basic_streambuf", i32, %"class.std::__cxx11::basic_string" }
%"class.std::basic_streambuf" = type { ptr, ptr, ptr, ptr, ptr, ptr, ptr, %"class.std::locale" }
%class.V3MutexImp = type { %"class.std::recursive_mutex" }
%"class.std::recursive_mutex" = type { %"class.std::__recursive_mutex_base" }
%"class.std::__recursive_mutex_base" = type { %union.pthread_mutex_t }
%union.pthread_mutex_t = type { %struct.__pthread_mutex_s }
%struct.__pthread_mutex_s = type { i32, i32, i32, i32, i32, i16, i16, %struct.__pthread_internal_list }
%struct.__pthread_internal_list = type { ptr, ptr }

@.str = private unnamed_addr constant [11 x i8] c"GUARDED_BY\00", section "llvm.metadata"
@.str.2 = private unnamed_addr constant [102 x i8] c"/home/dtcxzyw/WorkSpace/Projects/compilers/llvm-opt-benchmark/bench/verilator/verilator/src/V3Error.h\00", section "llvm.metadata"
@.str.34 = private unnamed_addr constant [16 x i8] c"Exiting due to \00", align 1
@.str.35 = private unnamed_addr constant [12 x i8] c" error(s), \00", align 1
@.str.36 = private unnamed_addr constant [13 x i8] c" warning(s)\0A\00", align 1
@.str.37 = private unnamed_addr constant [11 x i8] c" error(s)\0A\00", align 1

; Function Attrs: mustprogress nounwind uwtable
define linkonce_odr dso_local noundef i32 @_ZN14V3ErrorGuarded9warnCountEv(ptr noundef nonnull align 8 dereferenceable(760) %0) #6 comdat align 2 {
  %2 = alloca ptr, align 8
  store ptr %0, ptr %2, align 8, !tbaa !20
  %3 = load ptr, ptr %2, align 8
  %4 = getelementptr inbounds nuw %class.V3ErrorGuarded, ptr %3, i32 0, i32 7
  %5 = call ptr @llvm.ptr.annotation.p0.p0(ptr %4, ptr @.str, ptr @.str.2, i32 326, ptr null)
  %6 = load i32, ptr %5, align 4, !tbaa !114
  ret i32 %6
}

; Function Attrs: mustprogress nounwind uwtable
define linkonce_odr dso_local noundef i32 @_ZN14V3ErrorGuarded10errorCountEv(ptr noundef nonnull align 8 dereferenceable(760) %0) #6 comdat align 2 {
  %2 = alloca ptr, align 8
  store ptr %0, ptr %2, align 8, !tbaa !20
  %3 = load ptr, ptr %2, align 8
  %4 = getelementptr inbounds nuw %class.V3ErrorGuarded, ptr %3, i32 0, i32 8
  %5 = call ptr @llvm.ptr.annotation.p0.p0(ptr %4, ptr @.str, ptr @.str.2, i32 327, ptr null)
  %6 = load i32, ptr %5, align 8, !tbaa !113
  ret i32 %6
}

; Function Attrs: mustprogress uwtable
define available_externally noundef nonnull align 8 dereferenceable(8) ptr @_ZNSolsEPFRSt8ios_baseS0_E(ptr noundef nonnull align 8 dereferenceable(8) %0, ptr noundef %1) #4 align 2 {
  %3 = alloca ptr, align 8
  %4 = alloca ptr, align 8
  store ptr %0, ptr %3, align 8, !tbaa !59
  store ptr %1, ptr %4, align 8, !tbaa !63
  %5 = load ptr, ptr %3, align 8
  %6 = load ptr, ptr %4, align 8, !tbaa !63
  %7 = load ptr, ptr %5, align 8, !tbaa !61
  %8 = getelementptr i8, ptr %7, i64 -24
  %9 = load i64, ptr %8, align 8
  %10 = getelementptr inbounds i8, ptr %5, i64 %9
  %11 = call noundef nonnull align 8 dereferenceable(216) ptr %6(ptr noundef nonnull align 8 dereferenceable(216) %10)
  ret ptr %5
}

; Function Attrs: mustprogress nounwind uwtable
define linkonce_odr dso_local void @_ZN11V3ErrorCodeC2ENS_2enE(ptr noundef nonnull align 1 dereferenceable(1) %0, i8 noundef zeroext %1) unnamed_addr #6 comdat align 2 {
  %3 = alloca ptr, align 8
  %4 = alloca i8, align 1
  store ptr %0, ptr %3, align 8, !tbaa !9
  store i8 %1, ptr %4, align 1, !tbaa !26
  %5 = load ptr, ptr %3, align 8
  %6 = getelementptr inbounds nuw %class.V3ErrorCode, ptr %5, i32 0, i32 0
  %7 = load i8, ptr %4, align 1, !tbaa !26
  store i8 %7, ptr %6, align 1, !tbaa !15
  ret void
}

; Function Attrs: mustprogress uwtable
define dso_local void @_ZN7V3Error15abortIfWarningsEv() #4 align 2 {
  %1 = alloca i8, align 1
  %2 = alloca %class.V3ErrorCode, align 1
  %3 = alloca %class.V3ErrorCode, align 1
  %4 = alloca %class.V3ErrorCode, align 1
  call void @llvm.lifetime.start.p0(i64 1, ptr %1) #3
  %5 = call noundef zeroext i1 @_ZN7V3Error9warnFatalEv()
  br i1 %5, label %6, label %9

6:                                                ; preds = %0
  %7 = call noundef i32 @_ZN7V3Error9warnCountEv()
  %8 = icmp ne i32 %7, 0
  br label %9

9:                                                ; preds = %6, %0
  %10 = phi i1 [ false, %0 ], [ %8, %6 ]
  %11 = zext i1 %10 to i8
  store i8 %11, ptr %1, align 1, !tbaa !22
  %12 = call noundef i32 @_ZN7V3Error10errorCountEv()
  %13 = icmp ne i32 %12, 0
  br i1 %13, label %14, label %32

14:                                               ; preds = %9
  %15 = load i8, ptr %1, align 1, !tbaa !22, !range !24, !noundef !25
  %16 = trunc i8 %15 to i1
  br i1 %16, label %17, label %32

17:                                               ; preds = %14
  call void @_ZN11V3ErrorCodeC2ENS_2enE(ptr noundef nonnull align 1 dereferenceable(1) %2, i8 noundef zeroext 3)
  %18 = getelementptr inbounds nuw %class.V3ErrorCode, ptr %2, i32 0, i32 0
  %19 = load i8, ptr %18, align 1
  %20 = call noundef nonnull align 8 dereferenceable(112) ptr @_ZN7V3Error11v3errorPrepB5cxx11E11V3ErrorCode(i8 %19)
  %21 = call noundef nonnull align 8 dereferenceable(112) ptr @_ZN7V3Error10v3errorStrB5cxx11Ev()
  %22 = call noundef nonnull align 8 dereferenceable(8) ptr @_ZStlsISt11char_traitsIcEERSt13basic_ostreamIcT_ES5_PKc(ptr noundef nonnull align 8 dereferenceable(8) %21, ptr noundef @.str.34)
  %23 = call noundef nonnull align 8 dereferenceable(8) ptr @_ZNSolsEPFRSt8ios_baseS0_E(ptr noundef nonnull align 8 dereferenceable(8) %22, ptr noundef @_ZSt3decRSt8ios_base)
  %24 = call noundef nonnull align 8 dereferenceable(760) ptr @_ZN7V3Error1sEv()
  %25 = call noundef i32 @_ZN14V3ErrorGuarded10errorCountEv(ptr noundef nonnull align 8 dereferenceable(760) %24)
  %26 = call noundef nonnull align 8 dereferenceable(8) ptr @_ZNSolsEi(ptr noundef nonnull align 8 dereferenceable(8) %23, i32 noundef %25)
  %27 = call noundef nonnull align 8 dereferenceable(8) ptr @_ZStlsISt11char_traitsIcEERSt13basic_ostreamIcT_ES5_PKc(ptr noundef nonnull align 8 dereferenceable(8) %26, ptr noundef @.str.35)
  %28 = call noundef nonnull align 8 dereferenceable(760) ptr @_ZN7V3Error1sEv()
  %29 = call noundef i32 @_ZN14V3ErrorGuarded9warnCountEv(ptr noundef nonnull align 8 dereferenceable(760) %28)
  %30 = call noundef nonnull align 8 dereferenceable(8) ptr @_ZNSolsEi(ptr noundef nonnull align 8 dereferenceable(8) %27, i32 noundef %29)
  %31 = call noundef nonnull align 8 dereferenceable(8) ptr @_ZStlsISt11char_traitsIcEERSt13basic_ostreamIcT_ES5_PKc(ptr noundef nonnull align 8 dereferenceable(8) %30, ptr noundef @.str.36)
  call void @_Z15v3errorEndFatalRNSt7__cxx1119basic_ostringstreamIcSt11char_traitsIcESaIcEEE(ptr noundef nonnull align 8 dereferenceable(112) %31) #23
  unreachable

32:                                               ; preds = %14, %9
  %33 = call noundef i32 @_ZN7V3Error10errorCountEv()
  %34 = icmp ne i32 %33, 0
  br i1 %34, label %35, label %46

35:                                               ; preds = %32
  call void @_ZN11V3ErrorCodeC2ENS_2enE(ptr noundef nonnull align 1 dereferenceable(1) %3, i8 noundef zeroext 3)
  %36 = getelementptr inbounds nuw %class.V3ErrorCode, ptr %3, i32 0, i32 0
  %37 = load i8, ptr %36, align 1
  %38 = call noundef nonnull align 8 dereferenceable(112) ptr @_ZN7V3Error11v3errorPrepB5cxx11E11V3ErrorCode(i8 %37)
  %39 = call noundef nonnull align 8 dereferenceable(112) ptr @_ZN7V3Error10v3errorStrB5cxx11Ev()
  %40 = call noundef nonnull align 8 dereferenceable(8) ptr @_ZStlsISt11char_traitsIcEERSt13basic_ostreamIcT_ES5_PKc(ptr noundef nonnull align 8 dereferenceable(8) %39, ptr noundef @.str.34)
  %41 = call noundef nonnull align 8 dereferenceable(8) ptr @_ZNSolsEPFRSt8ios_baseS0_E(ptr noundef nonnull align 8 dereferenceable(8) %40, ptr noundef @_ZSt3decRSt8ios_base)
  %42 = call noundef nonnull align 8 dereferenceable(760) ptr @_ZN7V3Error1sEv()
  %43 = call noundef i32 @_ZN14V3ErrorGuarded10errorCountEv(ptr noundef nonnull align 8 dereferenceable(760) %42)
  %44 = call noundef nonnull align 8 dereferenceable(8) ptr @_ZNSolsEi(ptr noundef nonnull align 8 dereferenceable(8) %41, i32 noundef %43)
  %45 = call noundef nonnull align 8 dereferenceable(8) ptr @_ZStlsISt11char_traitsIcEERSt13basic_ostreamIcT_ES5_PKc(ptr noundef nonnull align 8 dereferenceable(8) %44, ptr noundef @.str.37)
  call void @_Z15v3errorEndFatalRNSt7__cxx1119basic_ostringstreamIcSt11char_traitsIcESaIcEEE(ptr noundef nonnull align 8 dereferenceable(112) %45) #23
  unreachable

46:                                               ; preds = %32
  %47 = load i8, ptr %1, align 1, !tbaa !22, !range !24, !noundef !25
  %48 = trunc i8 %47 to i1
  br i1 %48, label %49, label %60

49:                                               ; preds = %46
  call void @_ZN11V3ErrorCodeC2ENS_2enE(ptr noundef nonnull align 1 dereferenceable(1) %4, i8 noundef zeroext 3)
  %50 = getelementptr inbounds nuw %class.V3ErrorCode, ptr %4, i32 0, i32 0
  %51 = load i8, ptr %50, align 1
  %52 = call noundef nonnull align 8 dereferenceable(112) ptr @_ZN7V3Error11v3errorPrepB5cxx11E11V3ErrorCode(i8 %51)
  %53 = call noundef nonnull align 8 dereferenceable(112) ptr @_ZN7V3Error10v3errorStrB5cxx11Ev()
  %54 = call noundef nonnull align 8 dereferenceable(8) ptr @_ZStlsISt11char_traitsIcEERSt13basic_ostreamIcT_ES5_PKc(ptr noundef nonnull align 8 dereferenceable(8) %53, ptr noundef @.str.34)
  %55 = call noundef nonnull align 8 dereferenceable(8) ptr @_ZNSolsEPFRSt8ios_baseS0_E(ptr noundef nonnull align 8 dereferenceable(8) %54, ptr noundef @_ZSt3decRSt8ios_base)
  %56 = call noundef nonnull align 8 dereferenceable(760) ptr @_ZN7V3Error1sEv()
  %57 = call noundef i32 @_ZN14V3ErrorGuarded9warnCountEv(ptr noundef nonnull align 8 dereferenceable(760) %56)
  %58 = call noundef nonnull align 8 dereferenceable(8) ptr @_ZNSolsEi(ptr noundef nonnull align 8 dereferenceable(8) %55, i32 noundef %57)
  %59 = call noundef nonnull align 8 dereferenceable(8) ptr @_ZStlsISt11char_traitsIcEERSt13basic_ostreamIcT_ES5_PKc(ptr noundef nonnull align 8 dereferenceable(8) %58, ptr noundef @.str.36)
  call void @_Z15v3errorEndFatalRNSt7__cxx1119basic_ostringstreamIcSt11char_traitsIcESaIcEEE(ptr noundef nonnull align 8 dereferenceable(112) %59) #23
  unreachable

60:                                               ; preds = %46
  br label %61

61:                                               ; preds = %60
  br label %62

62:                                               ; preds = %61
  call void @llvm.lifetime.end.p0(i64 1, ptr %1) #3
  ret void
}